; Function Attrs: nounwind uwtable
define i32 @Gia_ManComputeOverlapOne(ptr noundef %0, i32 noundef %1) local_unnamed_addr #4 {
  tail call void @Gia_ManIncrementTravId(ptr noundef %0) #27
  %3 = getelementptr i8, ptr %0, i64 264
  %.val = load ptr, ptr %3, align 8, !tbaa !46
  %4 = getelementptr i8, ptr %.val, i64 8
  %.val.val = load ptr, ptr %4, align 8, !tbaa !47
  %5 = sext i32 %1 to i64
  %6 = getelementptr inbounds i32, ptr %.val.val, i64 %5
  %7 = load i32, ptr %6, align 4, !tbaa !48
  %8 = sext i32 %7 to i64
  %9 = getelementptr inbounds i32, ptr %.val.val, i64 %8
  %10 = load i32, ptr %9, align 4, !tbaa !48
  %11 = icmp sgt i32 %10, 0
  br i1 %11, label %.lr.ph, label %.critedge

.lr.ph:                                           ; preds = %2
  %12 = getelementptr i8, ptr %0, i64 176
  %13 = getelementptr i8, ptr %0, i64 616
  %.val13 = load ptr, ptr %13, align 8, !tbaa !85
  %.val12.pre = load i32, ptr %12, align 8, !tbaa !84
  %invariant.gep = getelementptr i8, ptr %.val.val, i64 4
  br label %14

14:                                               ; preds = %.lr.ph, %14
  %indvars.iv = phi i64 [ 0, %.lr.ph ], [ %indvars.iv.next, %14 ]
  %15 = phi i64 [ %8, %.lr.ph ], [ %21, %14 ]
  %gep = getelementptr i32, ptr %invariant.gep, i64 %15
  %16 = getelementptr inbounds nuw i32, ptr %gep, i64 %indvars.iv
  %17 = load i32, ptr %16, align 4, !tbaa !48
  %18 = sext i32 %17 to i64
  %19 = getelementptr inbounds i32, ptr %.val13, i64 %18
  store i32 %.val12.pre, ptr %19, align 4, !tbaa !48
  %indvars.iv.next = add nuw nsw i64 %indvars.iv, 1
  %20 = load i32, ptr %6, align 4, !tbaa !48
  %21 = sext i32 %20 to i64
  %22 = getelementptr inbounds i32, ptr %.val.val, i64 %21
  %23 = load i32, ptr %22, align 4, !tbaa !48
  %24 = sext i32 %23 to i64
  %25 = icmp slt i64 %indvars.iv.next, %24
  br i1 %25, label %14, label %.critedge, !llvm.loop !86

.critedge:                                        ; preds = %14, %2
  %26 = tail call i32 @Gia_ManComputeOverlapOne_rec(ptr noundef nonnull %0, i32 noundef %1)
  ret i32 %26
}